; ModuleID = '42/1808.cpp'
source_filename = "42/1808.cpp"
target datalayout = "e-m:e-p270:32:32-p271:32:32-p272:64:64-i64:64-f80:128-n8:16:32:64-S128"
target triple = "x86_64-pc-linux-gnu"

%"class.std::ios_base::Init" = type { i8 }
%"class.std::basic_istream" = type { i32 (...)**, i64, %"class.std::basic_ios" }
%"class.std::basic_ios" = type { %"class.std::ios_base", %"class.std::basic_ostream"*, i8, i8, %"class.std::basic_streambuf"*, %"class.std::ctype"*, %"class.std::num_put"*, %"class.std::num_get"* }
%"class.std::ios_base" = type { i32 (...)**, i64, i64, i32, i32, i32, %"struct.std::ios_base::_Callback_list"*, %"struct.std::ios_base::_Words", [8 x %"struct.std::ios_base::_Words"], i32, %"struct.std::ios_base::_Words"*, %"class.std::locale" }
%"struct.std::ios_base::_Callback_list" = type { %"struct.std::ios_base::_Callback_list"*, void (i32, %"class.std::ios_base"*, i32)*, i32, i32 }
%"struct.std::ios_base::_Words" = type { i8*, i64 }
%"class.std::locale" = type { %"class.std::locale::_Impl"* }
%"class.std::locale::_Impl" = type { i32, %"class.std::locale::facet"**, i64, %"class.std::locale::facet"**, i8** }
%"class.std::locale::facet" = type <{ i32 (...)**, i32, [4 x i8] }>
%"class.std::basic_ostream" = type { i32 (...)**, %"class.std::basic_ios" }
%"class.std::basic_streambuf" = type { i32 (...)**, i8*, i8*, i8*, i8*, i8*, i8*, %"class.std::locale" }
%"class.std::ctype" = type <{ %"class.std::locale::facet.base", [4 x i8], %struct.__locale_struct*, i8, [7 x i8], i32*, i32*, i16*, i8, [256 x i8], [256 x i8], i8, [6 x i8] }>
%"class.std::locale::facet.base" = type <{ i32 (...)**, i32 }>
%struct.__locale_struct = type { [13 x %struct.__locale_data*], i16*, i32*, i32*, [13 x i8*] }
%struct.__locale_data = type opaque
%"class.std::num_put" = type { %"class.std::locale::facet.base", [4 x i8] }
%"class.std::num_get" = type { %"class.std::locale::facet.base", [4 x i8] }

@_ZStL8__ioinit = internal global %"class.std::ios_base::Init" zeroinitializer, align 1
@__dso_handle = external hidden global i8
@_ZSt3cin = external dso_local global %"class.std::basic_istream", align 8
@_ZSt4cout = external dso_local global %"class.std::basic_ostream", align 8
@.str = private unnamed_addr constant [2 x i8] c" \00", align 1
@llvm.global_ctors = appending global [1 x { i32, void ()*, i8* }] [{ i32, void ()*, i8* } { i32 65535, void ()* @_GLOBAL__sub_I_1808.cpp, i8* null }]

; Function Attrs: noinline uwtable
define internal void @__cxx_global_var_init() #0 section ".text.startup" {
  call void @_ZNSt8ios_base4InitC1Ev(%"class.std::ios_base::Init"* @_ZStL8__ioinit)
  %1 = call i32 @__cxa_atexit(void (i8*)* bitcast (void (%"class.std::ios_base::Init"*)* @_ZNSt8ios_base4InitD1Ev to void (i8*)*), i8* getelementptr inbounds (%"class.std::ios_base::Init", %"class.std::ios_base::Init"* @_ZStL8__ioinit, i32 0, i32 0), i8* @__dso_handle) #3
  ret void
}

declare dso_local void @_ZNSt8ios_base4InitC1Ev(%"class.std::ios_base::Init"*) unnamed_addr #1

; Function Attrs: nounwind
declare dso_local void @_ZNSt8ios_base4InitD1Ev(%"class.std::ios_base::Init"*) unnamed_addr #2

; Function Attrs: nounwind
declare dso_local i32 @__cxa_atexit(void (i8*)*, i8*, i8*) #3

; Function Attrs: noinline norecurse uwtable
define dso_local i32 @main() #4 {
  %1 = alloca i32, align 4
  %2 = alloca i32, align 4
  %3 = alloca i32, align 4
  %4 = alloca i32, align 4
  %5 = alloca i32, align 4
  %6 = alloca i8*, align 8
  %7 = alloca i64, align 8
  %8 = alloca i32, align 4
  store i32 0, i32* %1, align 4
  store i32 0, i32* %4, align 4
  %9 = call dereferenceable(280) %"class.std::basic_istream"* @_ZNSirsERi(%"class.std::basic_istream"* @_ZSt3cin, i32* dereferenceable(4) %2)
  %10 = load i32, i32* %2, align 4
  %11 = sub nsw i32 %10, 1
  %12 = zext i32 %11 to i64
  %13 = call i8* @llvm.stacksave()
  store i8* %13, i8** %6, align 8
  %14 = alloca i32, i64 %12, align 16
  store i64 %12, i64* %7, align 8
  store i32 0, i32* %5, align 4
  br label %15

15:                                               ; preds = %24, %0
  %16 = load i32, i32* %5, align 4
  %17 = load i32, i32* %2, align 4
  %18 = icmp slt i32 %16, %17
  br i1 %18, label %19, label %27

19:                                               ; preds = %15
  %20 = load i32, i32* %5, align 4
  %21 = sext i32 %20 to i64
  %22 = getelementptr inbounds i32, i32* %14, i64 %21
  %23 = call dereferenceable(280) %"class.std::basic_istream"* @_ZNSirsERi(%"class.std::basic_istream"* @_ZSt3cin, i32* dereferenceable(4) %22)
  br label %24

24:                                               ; preds = %19
  %25 = load i32, i32* %5, align 4
  %26 = add nsw i32 %25, 1
  store i32 %26, i32* %5, align 4
  br label %15

27:                                               ; preds = %15
  %28 = call dereferenceable(280) %"class.std::basic_istream"* @_ZNSirsERi(%"class.std::basic_istream"* @_ZSt3cin, i32* dereferenceable(4) %3)
  store i32 0, i32* %5, align 4
  br label %29

29:                                               ; preds = %73, %27
  %30 = load i32, i32* %5, align 4
  %31 = load i32, i32* %2, align 4
  %32 = load i32, i32* %4, align 4
  %33 = sub nsw i32 %31, %32
  %34 = icmp slt i32 %30, %33
  br i1 %34, label %35, label %76

35:                                               ; preds = %29
  %36 = load i32, i32* %5, align 4
  %37 = sext i32 %36 to i64
  %38 = getelementptr inbounds i32, i32* %14, i64 %37
  %39 = load i32, i32* %38, align 4
  %40 = load i32, i32* %3, align 4
  %41 = icmp eq i32 %39, %40
  br i1 %41, label %42, label %72

42:                                               ; preds = %35
  %43 = load i32, i32* %4, align 4
  %44 = add nsw i32 %43, 1
  store i32 %44, i32* %4, align 4
  %45 = load i32, i32* %5, align 4
  store i32 %45, i32* %8, align 4
  br label %46

46:                                               ; preds = %61, %42
  %47 = load i32, i32* %8, align 4
  %48 = load i32, i32* %2, align 4
  %49 = load i32, i32* %4, align 4
  %50 = sub nsw i32 %48, %49
  %51 = icmp slt i32 %47, %50
  br i1 %51, label %52, label %64

52:                                               ; preds = %46
  %53 = load i32, i32* %8, align 4
  %54 = add nsw i32 %53, 1
  %55 = sext i32 %54 to i64
  %56 = getelementptr inbounds i32, i32* %14, i64 %55
  %57 = load i32, i32* %56, align 4
  %58 = load i32, i32* %8, align 4
  %59 = sext i32 %58 to i64
  %60 = getelementptr inbounds i32, i32* %14, i64 %59
  store i32 %57, i32* %60, align 4
  br label %61

61:                                               ; preds = %52
  %62 = load i32, i32* %8, align 4
  %63 = add nsw i32 %62, 1
  store i32 %63, i32* %8, align 4
  br label %46

64:                                               ; preds = %46
  %65 = load i32, i32* %2, align 4
  %66 = load i32, i32* %4, align 4
  %67 = sub nsw i32 %65, %66
  %68 = sext i32 %67 to i64
  %69 = getelementptr inbounds i32, i32* %14, i64 %68
  store i32 0, i32* %69, align 4
  %70 = load i32, i32* %5, align 4
  %71 = sub nsw i32 %70, 1
  store i32 %71, i32* %5, align 4
  br label %72

72:                                               ; preds = %64, %35
  br label %73

73:                                               ; preds = %72
  %74 = load i32, i32* %5, align 4
  %75 = add nsw i32 %74, 1
  store i32 %75, i32* %5, align 4
  br label %29

76:                                               ; preds = %29
  store i32 0, i32* %5, align 4
  br label %77

77:                                               ; preds = %100, %76
  %78 = load i32, i32* %5, align 4
  %79 = load i32, i32* %2, align 4
  %80 = load i32, i32* %4, align 4
  %81 = sub nsw i32 %79, %80
  %82 = icmp slt i32 %78, %81
  br i1 %82, label %83, label %103

83:                                               ; preds = %77
  %84 = load i32, i32* %5, align 4
  %85 = icmp eq i32 %84, 0
  br i1 %85, label %86, label %92

86:                                               ; preds = %83
  %87 = load i32, i32* %5, align 4
  %88 = sext i32 %87 to i64
  %89 = getelementptr inbounds i32, i32* %14, i64 %88
  %90 = load i32, i32* %89, align 4
  %91 = call dereferenceable(272) %"class.std::basic_ostream"* @_ZNSolsEi(%"class.std::basic_ostream"* @_ZSt4cout, i32 %90)
  br label %99

92:                                               ; preds = %83
  %93 = call dereferenceable(272) %"class.std::basic_ostream"* @_ZStlsISt11char_traitsIcEERSt13basic_ostreamIcT_ES5_PKc(%"class.std::basic_ostream"* dereferenceable(272) @_ZSt4cout, i8* getelementptr inbounds ([2 x i8], [2 x i8]* @.str, i64 0, i64 0))
  %94 = load i32, i32* %5, align 4
  %95 = sext i32 %94 to i64
  %96 = getelementptr inbounds i32, i32* %14, i64 %95
  %97 = load i32, i32* %96, align 4
  %98 = call dereferenceable(272) %"class.std::basic_ostream"* @_ZNSolsEi(%"class.std::basic_ostream"* %93, i32 %97)
  br label %99

99:                                               ; preds = %92, %86
  br label %100

100:                                              ; preds = %99
  %101 = load i32, i32* %5, align 4
  %102 = add nsw i32 %101, 1
  store i32 %102, i32* %5, align 4
  br label %77

103:                                              ; preds = %77
  store i32 0, i32* %1, align 4
  %104 = load i8*, i8** %6, align 8
  call void @llvm.stackrestore(i8* %104)
  %105 = load i32, i32* %1, align 4
  ret i32 %105
}

declare dso_local dereferenceable(280) %"class.std::basic_istream"* @_ZNSirsERi(%"class.std::basic_istream"*, i32* dereferenceable(4)) #1

; Function Attrs: nounwind
declare i8* @llvm.stacksave() #3

declare dso_local dereferenceable(272) %"class.std::basic_ostream"* @_ZNSolsEi(%"class.std::basic_ostream"*, i32) #1

declare dso_local dereferenceable(272) %"class.std::basic_ostream"* @_ZStlsISt11char_traitsIcEERSt13basic_ostreamIcT_ES5_PKc(%"class.std::basic_ostream"* dereferenceable(272), i8*) #1

; Function Attrs: nounwind
declare void @llvm.stackrestore(i8*) #3

; Function Attrs: noinline uwtable
define internal void @_GLOBAL__sub_I_1808.cpp() #0 section ".text.startup" {
  call void @__cxx_global_var_init()
  ret void
}


!llvm.module.flags = !{!0}
!llvm.ident = !{!1}

!0 = !{i32 1, !"wchar_size", i32 4}
!1 = !{!"clang version 10.0.0-4ubuntu1 "}
